target datalayout = "e-m:e-p270:32:32-p271:32:32-p272:64:64-i64:64-i128:128-f80:128-n8:16:32:64-S128"
target triple = "x86_64-pc-linux-gnu"

%struct.varattrib_1b = type { i8, [0 x i8] }
%struct.anon = type { i32, [0 x i8] }
%struct.inet_struct = type { i8, i8, [16 x i8] }
%struct.SortSupportData = type { ptr, i32, i8, i8, i16, ptr, ptr, i8, ptr, ptr, ptr }
%struct.network_sortsupport_state = type { i64, i8, %struct.hyperLogLogState }
%struct.hyperLogLogState = type { i8, i64, double, ptr, i64 }

; Function Attrs: inlinehint nounwind uwtable
define internal i64 @UInt32GetDatum(i32 noundef %0) #2 {
  %2 = alloca i32, align 4
  store i32 %0, ptr %2, align 4
  %3 = load i32, ptr %2, align 4
  %4 = zext i32 %3 to i64
  ret i64 %4
}

; Function Attrs: inlinehint nounwind uwtable
define internal ptr @DatumGetPointer(i64 noundef %0) #2 {
  %2 = alloca i64, align 8
  store i64 %0, ptr %2, align 8
  %3 = load i64, ptr %2, align 8
  %4 = inttoptr i64 %3 to ptr
  ret ptr %4
}

; Function Attrs: inlinehint nounwind uwtable
define internal i32 @DatumGetUInt32(i64 noundef %0) #2 {
  %2 = alloca i64, align 8
  store i64 %0, ptr %2, align 8
  %3 = load i64, ptr %2, align 8
  %4 = trunc i64 %3 to i32
  ret i32 %4
}

; Function Attrs: inlinehint nounwind uwtable
define internal i64 @hash_uint32(i32 noundef %0) #2 {
  %2 = alloca i32, align 4
  store i32 %0, ptr %2, align 4
  %3 = load i32, ptr %2, align 4
  %4 = call i32 @hash_bytes_uint32(i32 noundef %3)
  %5 = call i64 @UInt32GetDatum(i32 noundef %4)
  ret i64 %5
}

; Function Attrs: inlinehint nounwind uwtable
define internal ptr @DatumGetInetPP(i64 noundef %0) #2 {
  %2 = alloca i64, align 8
  store i64 %0, ptr %2, align 8
  %3 = load i64, ptr %2, align 8
  %4 = call ptr @DatumGetPointer(i64 noundef %3)
  %5 = call ptr @pg_detoast_datum_packed(ptr noundef %4)
  ret ptr %5
}

; Function Attrs: nounwind uwtable
define internal i64 @network_abbrev_convert(i64 noundef %0, ptr noundef %1) #0 {
  %3 = alloca i64, align 8
  %4 = alloca ptr, align 8
  %5 = alloca ptr, align 8
  %6 = alloca ptr, align 8
  %7 = alloca i64, align 8
  %8 = alloca i64, align 8
  %9 = alloca i64, align 8
  %10 = alloca i64, align 8
  %11 = alloca i32, align 4
  %12 = alloca i32, align 4
  %13 = alloca i64, align 8
  %14 = alloca i64, align 8
  %15 = alloca i32, align 4
  store i64 %0, ptr %3, align 8
  store ptr %1, ptr %4, align 8
  call void @llvm.lifetime.start.p0(i64 8, ptr %5) #8
  %16 = load ptr, ptr %4, align 8
  %17 = getelementptr inbounds nuw %struct.SortSupportData, ptr %16, i32 0, i32 5
  %18 = load ptr, ptr %17, align 8
  store ptr %18, ptr %5, align 8
  call void @llvm.lifetime.start.p0(i64 8, ptr %6) #8
  %19 = load i64, ptr %3, align 8
  %20 = call ptr @DatumGetInetPP(i64 noundef %19)
  store ptr %20, ptr %6, align 8
  call void @llvm.lifetime.start.p0(i64 8, ptr %7) #8
  call void @llvm.lifetime.start.p0(i64 8, ptr %8) #8
  call void @llvm.lifetime.start.p0(i64 8, ptr %9) #8
  call void @llvm.lifetime.start.p0(i64 8, ptr %10) #8
  call void @llvm.lifetime.start.p0(i64 4, ptr %11) #8
  %21 = load ptr, ptr %6, align 8
  %22 = getelementptr inbounds nuw %struct.varattrib_1b, ptr %21, i32 0, i32 0
  %23 = load i8, ptr %22, align 1
  %24 = zext i8 %23 to i32
  %25 = and i32 %24, 1
  %26 = icmp eq i32 %25, 1
  br i1 %26, label %27, label %31

27:                                               ; preds = %2
  %28 = load ptr, ptr %6, align 8
  %29 = getelementptr inbounds nuw %struct.varattrib_1b, ptr %28, i32 0, i32 1
  %30 = getelementptr inbounds [0 x i8], ptr %29, i64 0, i64 0
  br label %35

31:                                               ; preds = %2
  %32 = load ptr, ptr %6, align 8
  %33 = getelementptr inbounds nuw %struct.anon, ptr %32, i32 0, i32 1
  %34 = getelementptr inbounds [0 x i8], ptr %33, i64 0, i64 0
  br label %35

35:                                               ; preds = %31, %27
  %36 = phi ptr [ %30, %27 ], [ %34, %31 ]
  %37 = getelementptr inbounds nuw %struct.inet_struct, ptr %36, i32 0, i32 0
  %38 = load i8, ptr %37, align 1
  %39 = zext i8 %38 to i32
  %40 = icmp eq i32 %39, 2
  br i1 %40, label %41, label %63

41:                                               ; preds = %35
  call void @llvm.lifetime.start.p0(i64 4, ptr %12) #8
  %42 = load ptr, ptr %6, align 8
  %43 = getelementptr inbounds nuw %struct.varattrib_1b, ptr %42, i32 0, i32 0
  %44 = load i8, ptr %43, align 1
  %45 = zext i8 %44 to i32
  %46 = and i32 %45, 1
  %47 = icmp eq i32 %46, 1
  br i1 %47, label %48, label %52

48:                                               ; preds = %41
  %49 = load ptr, ptr %6, align 8
  %50 = getelementptr inbounds nuw %struct.varattrib_1b, ptr %49, i32 0, i32 1
  %51 = getelementptr inbounds [0 x i8], ptr %50, i64 0, i64 0
  br label %56

52:                                               ; preds = %41
  %53 = load ptr, ptr %6, align 8
  %54 = getelementptr inbounds nuw %struct.anon, ptr %53, i32 0, i32 1
  %55 = getelementptr inbounds [0 x i8], ptr %54, i64 0, i64 0
  br label %56

56:                                               ; preds = %52, %48
  %57 = phi ptr [ %51, %48 ], [ %55, %52 ]
  %58 = getelementptr inbounds nuw %struct.inet_struct, ptr %57, i32 0, i32 2
  %59 = getelementptr inbounds [16 x i8], ptr %58, i64 0, i64 0
  call void @llvm.memcpy.p0.p0.i64(ptr align 4 %12, ptr align 1 %59, i64 4, i1 false)
  %60 = load i32, ptr %12, align 4
  %61 = call i32 @llvm.bswap.i32(i32 %60)
  %62 = zext i32 %61 to i64
  store i64 %62, ptr %8, align 8
  store i64 0, ptr %7, align 8
  call void @llvm.lifetime.end.p0(i64 4, ptr %12) #8
  br label %84

63:                                               ; preds = %35
  %64 = load ptr, ptr %6, align 8
  %65 = getelementptr inbounds nuw %struct.varattrib_1b, ptr %64, i32 0, i32 0
  %66 = load i8, ptr %65, align 1
  %67 = zext i8 %66 to i32
  %68 = and i32 %67, 1
  %69 = icmp eq i32 %68, 1
  br i1 %69, label %70, label %74

70:                                               ; preds = %63
  %71 = load ptr, ptr %6, align 8
  %72 = getelementptr inbounds nuw %struct.varattrib_1b, ptr %71, i32 0, i32 1
  %73 = getelementptr inbounds [0 x i8], ptr %72, i64 0, i64 0
  br label %78

74:                                               ; preds = %63
  %75 = load ptr, ptr %6, align 8
  %76 = getelementptr inbounds nuw %struct.anon, ptr %75, i32 0, i32 1
  %77 = getelementptr inbounds [0 x i8], ptr %76, i64 0, i64 0
  br label %78

78:                                               ; preds = %74, %70
  %79 = phi ptr [ %73, %70 ], [ %77, %74 ]
  %80 = getelementptr inbounds nuw %struct.inet_struct, ptr %79, i32 0, i32 2
  %81 = getelementptr inbounds [16 x i8], ptr %80, i64 0, i64 0
  call void @llvm.memcpy.p0.p0.i64(ptr align 8 %8, ptr align 1 %81, i64 8, i1 false)
  %82 = load i64, ptr %8, align 8
  %83 = call i64 @llvm.bswap.i64(i64 %82)
  store i64 %83, ptr %8, align 8
  store i64 -9223372036854775808, ptr %7, align 8
  br label %84

84:                                               ; preds = %78, %56
  %85 = load ptr, ptr %6, align 8
  %86 = getelementptr inbounds nuw %struct.varattrib_1b, ptr %85, i32 0, i32 0
  %87 = load i8, ptr %86, align 1
  %88 = zext i8 %87 to i32
  %89 = and i32 %88, 1
  %90 = icmp eq i32 %89, 1
  br i1 %90, label %91, label %95

91:                                               ; preds = %84
  %92 = load ptr, ptr %6, align 8
  %93 = getelementptr inbounds nuw %struct.varattrib_1b, ptr %92, i32 0, i32 1
  %94 = getelementptr inbounds [0 x i8], ptr %93, i64 0, i64 0
  br label %99

95:                                               ; preds = %84
  %96 = load ptr, ptr %6, align 8
  %97 = getelementptr inbounds nuw %struct.anon, ptr %96, i32 0, i32 1
  %98 = getelementptr inbounds [0 x i8], ptr %97, i64 0, i64 0
  br label %99

99:                                               ; preds = %95, %91
  %100 = phi ptr [ %94, %91 ], [ %98, %95 ]
  %101 = getelementptr inbounds nuw %struct.inet_struct, ptr %100, i32 0, i32 0
  %102 = load i8, ptr %101, align 1
  %103 = zext i8 %102 to i32
  %104 = icmp eq i32 %103, 2
  %105 = select i1 %104, i32 32, i32 128
  %106 = load ptr, ptr %6, align 8
  %107 = getelementptr inbounds nuw %struct.varattrib_1b, ptr %106, i32 0, i32 0
  %108 = load i8, ptr %107, align 1
  %109 = zext i8 %108 to i32
  %110 = and i32 %109, 1
  %111 = icmp eq i32 %110, 1
  br i1 %111, label %112, label %116

112:                                              ; preds = %99
  %113 = load ptr, ptr %6, align 8
  %114 = getelementptr inbounds nuw %struct.varattrib_1b, ptr %113, i32 0, i32 1
  %115 = getelementptr inbounds [0 x i8], ptr %114, i64 0, i64 0
  br label %120

116:                                              ; preds = %99
  %117 = load ptr, ptr %6, align 8
  %118 = getelementptr inbounds nuw %struct.anon, ptr %117, i32 0, i32 1
  %119 = getelementptr inbounds [0 x i8], ptr %118, i64 0, i64 0
  br label %120

120:                                              ; preds = %116, %112
  %121 = phi ptr [ %115, %112 ], [ %119, %116 ]
  %122 = getelementptr inbounds nuw %struct.inet_struct, ptr %121, i32 0, i32 1
  %123 = load i8, ptr %122, align 1
  %124 = zext i8 %123 to i32
  %125 = sub i32 %105, %124
  store i32 %125, ptr %11, align 4
  %126 = load i32, ptr %11, align 4
  %127 = srem i32 %126, 64
  store i32 %127, ptr %11, align 4
  %128 = load ptr, ptr %6, align 8
  %129 = getelementptr inbounds nuw %struct.varattrib_1b, ptr %128, i32 0, i32 0
  %130 = load i8, ptr %129, align 1
  %131 = zext i8 %130 to i32
  %132 = and i32 %131, 1
  %133 = icmp eq i32 %132, 1
  br i1 %133, label %134, label %138

134:                                              ; preds = %120
  %135 = load ptr, ptr %6, align 8
  %136 = getelementptr inbounds nuw %struct.varattrib_1b, ptr %135, i32 0, i32 1
  %137 = getelementptr inbounds [0 x i8], ptr %136, i64 0, i64 0
  br label %142

138:                                              ; preds = %120
  %139 = load ptr, ptr %6, align 8
  %140 = getelementptr inbounds nuw %struct.anon, ptr %139, i32 0, i32 1
  %141 = getelementptr inbounds [0 x i8], ptr %140, i64 0, i64 0
  br label %142

142:                                              ; preds = %138, %134
  %143 = phi ptr [ %137, %134 ], [ %141, %138 ]
  %144 = getelementptr inbounds nuw %struct.inet_struct, ptr %143, i32 0, i32 1
  %145 = load i8, ptr %144, align 1
  %146 = zext i8 %145 to i32
  %147 = icmp eq i32 %146, 0
  br i1 %147, label %148, label %149

148:                                              ; preds = %142
  store i64 -1, ptr %9, align 8
  store i64 0, ptr %10, align 8
  br label %182

149:                                              ; preds = %142
  %150 = load ptr, ptr %6, align 8
  %151 = getelementptr inbounds nuw %struct.varattrib_1b, ptr %150, i32 0, i32 0
  %152 = load i8, ptr %151, align 1
  %153 = zext i8 %152 to i32
  %154 = and i32 %153, 1
  %155 = icmp eq i32 %154, 1
  br i1 %155, label %156, label %160

156:                                              ; preds = %149
  %157 = load ptr, ptr %6, align 8
  %158 = getelementptr inbounds nuw %struct.varattrib_1b, ptr %157, i32 0, i32 1
  %159 = getelementptr inbounds [0 x i8], ptr %158, i64 0, i64 0
  br label %164

160:                                              ; preds = %149
  %161 = load ptr, ptr %6, align 8
  %162 = getelementptr inbounds nuw %struct.anon, ptr %161, i32 0, i32 1
  %163 = getelementptr inbounds [0 x i8], ptr %162, i64 0, i64 0
  br label %164

164:                                              ; preds = %160, %156
  %165 = phi ptr [ %159, %156 ], [ %163, %160 ]
  %166 = getelementptr inbounds nuw %struct.inet_struct, ptr %165, i32 0, i32 1
  %167 = load i8, ptr %166, align 1
  %168 = zext i8 %167 to i32
  %169 = icmp slt i32 %168, 64
  br i1 %169, label %170, label %179

170:                                              ; preds = %164
  %171 = load i32, ptr %11, align 4
  %172 = zext i32 %171 to i64
  %173 = shl i64 1, %172
  %174 = sub i64 %173, 1
  store i64 %174, ptr %9, align 8
  %175 = load i64, ptr %8, align 8
  %176 = load i64, ptr %9, align 8
  %177 = xor i64 %176, -1
  %178 = and i64 %175, %177
  store i64 %178, ptr %10, align 8
  br label %181

179:                                              ; preds = %164
  store i64 0, ptr %9, align 8
  %180 = load i64, ptr %8, align 8
  store i64 %180, ptr %10, align 8
  br label %181

181:                                              ; preds = %179, %170
  br label %182

182:                                              ; preds = %181, %148
  %183 = load ptr, ptr %6, align 8
  %184 = getelementptr inbounds nuw %struct.varattrib_1b, ptr %183, i32 0, i32 0
  %185 = load i8, ptr %184, align 1
  %186 = zext i8 %185 to i32
  %187 = and i32 %186, 1
  %188 = icmp eq i32 %187, 1
  br i1 %188, label %189, label %193

189:                                              ; preds = %182
  %190 = load ptr, ptr %6, align 8
  %191 = getelementptr inbounds nuw %struct.varattrib_1b, ptr %190, i32 0, i32 1
  %192 = getelementptr inbounds [0 x i8], ptr %191, i64 0, i64 0
  br label %197

193:                                              ; preds = %182
  %194 = load ptr, ptr %6, align 8
  %195 = getelementptr inbounds nuw %struct.anon, ptr %194, i32 0, i32 1
  %196 = getelementptr inbounds [0 x i8], ptr %195, i64 0, i64 0
  br label %197

197:                                              ; preds = %193, %189
  %198 = phi ptr [ %192, %189 ], [ %196, %193 ]
  %199 = getelementptr inbounds nuw %struct.inet_struct, ptr %198, i32 0, i32 0
  %200 = load i8, ptr %199, align 1
  %201 = zext i8 %200 to i32
  %202 = icmp eq i32 %201, 2
  br i1 %202, label %203, label %246

203:                                              ; preds = %197
  call void @llvm.lifetime.start.p0(i64 8, ptr %13) #8
  %204 = load ptr, ptr %6, align 8
  %205 = getelementptr inbounds nuw %struct.varattrib_1b, ptr %204, i32 0, i32 0
  %206 = load i8, ptr %205, align 1
  %207 = zext i8 %206 to i32
  %208 = and i32 %207, 1
  %209 = icmp eq i32 %208, 1
  br i1 %209, label %210, label %214

210:                                              ; preds = %203
  %211 = load ptr, ptr %6, align 8
  %212 = getelementptr inbounds nuw %struct.varattrib_1b, ptr %211, i32 0, i32 1
  %213 = getelementptr inbounds [0 x i8], ptr %212, i64 0, i64 0
  br label %218

214:                                              ; preds = %203
  %215 = load ptr, ptr %6, align 8
  %216 = getelementptr inbounds nuw %struct.anon, ptr %215, i32 0, i32 1
  %217 = getelementptr inbounds [0 x i8], ptr %216, i64 0, i64 0
  br label %218

218:                                              ; preds = %214, %210
  %219 = phi ptr [ %213, %210 ], [ %217, %214 ]
  %220 = getelementptr inbounds nuw %struct.inet_struct, ptr %219, i32 0, i32 1
  %221 = load i8, ptr %220, align 1
  %222 = zext i8 %221 to i64
  store i64 %222, ptr %13, align 8
  call void @llvm.lifetime.start.p0(i64 8, ptr %14) #8
  %223 = load i64, ptr %10, align 8
  %224 = shl i64 %223, 31
  store i64 %224, ptr %10, align 8
  %225 = load i64, ptr %13, align 8
  %226 = shl i64 %225, 25
  store i64 %226, ptr %13, align 8
  %227 = load i64, ptr %8, align 8
  %228 = load i64, ptr %9, align 8
  %229 = and i64 %227, %228
  store i64 %229, ptr %14, align 8
  %230 = load i32, ptr %11, align 4
  %231 = icmp sgt i32 %230, 25
  br i1 %231, label %232, label %238

232:                                              ; preds = %218
  %233 = load i32, ptr %11, align 4
  %234 = sub i32 %233, 25
  %235 = load i64, ptr %14, align 8
  %236 = zext i32 %234 to i64
  %237 = lshr i64 %235, %236
  store i64 %237, ptr %14, align 8
  br label %238

238:                                              ; preds = %232, %218
  %239 = load i64, ptr %10, align 8
  %240 = load i64, ptr %13, align 8
  %241 = or i64 %239, %240
  %242 = load i64, ptr %14, align 8
  %243 = or i64 %241, %242
  %244 = load i64, ptr %7, align 8
  %245 = or i64 %244, %243
  store i64 %245, ptr %7, align 8
  call void @llvm.lifetime.end.p0(i64 8, ptr %14) #8
  call void @llvm.lifetime.end.p0(i64 8, ptr %13) #8
  br label %251

246:                                              ; preds = %197
  %247 = load i64, ptr %10, align 8
  %248 = lshr i64 %247, 1
  %249 = load i64, ptr %7, align 8
  %250 = or i64 %249, %248
  store i64 %250, ptr %7, align 8
  br label %251

251:                                              ; preds = %246, %238
  %252 = load ptr, ptr %5, align 8
  %253 = getelementptr inbounds nuw %struct.network_sortsupport_state, ptr %252, i32 0, i32 0
  %254 = load i64, ptr %253, align 8
  %255 = add i64 %254, 1
  store i64 %255, ptr %253, align 8
  %256 = load ptr, ptr %5, align 8
  %257 = getelementptr inbounds nuw %struct.network_sortsupport_state, ptr %256, i32 0, i32 1
  %258 = load i8, ptr %257, align 8, !range !4, !noundef !5
  %259 = trunc i8 %258 to i1
  br i1 %259, label %260, label %272

260:                                              ; preds = %251
  call void @llvm.lifetime.start.p0(i64 4, ptr %15) #8
  %261 = load i64, ptr %7, align 8
  %262 = trunc i64 %261 to i32
  %263 = load i64, ptr %7, align 8
  %264 = lshr i64 %263, 32
  %265 = trunc i64 %264 to i32
  %266 = xor i32 %262, %265
  store i32 %266, ptr %15, align 4
  %267 = load ptr, ptr %5, align 8
  %268 = getelementptr inbounds nuw %struct.network_sortsupport_state, ptr %267, i32 0, i32 2
  %269 = load i32, ptr %15, align 4
  %270 = call i64 @hash_uint32(i32 noundef %269)
  %271 = call i32 @DatumGetUInt32(i64 noundef %270)
  call void @addHyperLogLog(ptr noundef %268, i32 noundef %271)
  call void @llvm.lifetime.end.p0(i64 4, ptr %15) #8
  br label %272

272:                                              ; preds = %260, %251
  %273 = load i64, ptr %7, align 8
  call void @llvm.lifetime.end.p0(i64 4, ptr %11) #8
  call void @llvm.lifetime.end.p0(i64 8, ptr %10) #8
  call void @llvm.lifetime.end.p0(i64 8, ptr %9) #8
  call void @llvm.lifetime.end.p0(i64 8, ptr %8) #8
  call void @llvm.lifetime.end.p0(i64 8, ptr %7) #8
  call void @llvm.lifetime.end.p0(i64 8, ptr %6) #8
  call void @llvm.lifetime.end.p0(i64 8, ptr %5) #8
  ret i64 %273
}