; Function Attrs: nounwind uwtable
define internal i64 @network_abbrev_convert(i64 noundef %0, ptr noundef readonly captures(none) %1) #0 {
  %3 = getelementptr inbounds nuw i8, ptr %1, i64 16
  %4 = load ptr, ptr %3, align 8
  %5 = inttoptr i64 %0 to ptr
  %6 = tail call ptr @pg_detoast_datum_packed(ptr noundef %5) #14
  %7 = load i8, ptr %6, align 1
  %8 = and i8 %7, 1
  %.not = icmp eq i8 %8, 0
  %.v = select i1 %.not, i64 4, i64 1
  %9 = getelementptr inbounds nuw i8, ptr %6, i64 %.v
  %10 = load i8, ptr %9, align 1
  %11 = icmp eq i8 %10, 2
  %12 = getelementptr inbounds nuw i8, ptr %9, i64 2
  br i1 %11, label %13, label %16

13:                                               ; preds = %2
  %.0.copyload = load i32, ptr %12, align 1
  %14 = tail call i32 @llvm.bswap.i32(i32 %.0.copyload)
  %15 = zext i32 %14 to i64
  br label %18

16:                                               ; preds = %2
  %.0.copyload15 = load i64, ptr %12, align 1
  %17 = tail call i64 @llvm.bswap.i64(i64 %.0.copyload15)
  br label %18

18:                                               ; preds = %16, %13
  %19 = phi i16 [ 32, %13 ], [ 128, %16 ]
  %.057 = phi i64 [ %15, %13 ], [ %17, %16 ]
  %.0 = phi i64 [ 0, %13 ], [ -9223372036854775808, %16 ]
  %20 = getelementptr inbounds nuw i8, ptr %9, i64 1
  %21 = load i8, ptr %20, align 1
  %22 = zext i8 %21 to i16
  %.lhs.trunc = sub nsw i16 %19, %22
  %23 = srem i16 %.lhs.trunc, 64
  %.sext = sext i16 %23 to i32
  %24 = icmp eq i8 %21, 0
  br i1 %24, label %31, label %25

25:                                               ; preds = %18
  %26 = icmp ult i8 %21, 64
  br i1 %26, label %27, label %31

27:                                               ; preds = %25
  %28 = zext nneg i32 %.sext to i64
  %notmask = shl nsw i64 -1, %28
  %29 = xor i64 %notmask, -1
  %30 = and i64 %notmask, %.057
  br label %31

31:                                               ; preds = %25, %18, %27
  %.059 = phi i64 [ %29, %27 ], [ -1, %18 ], [ 0, %25 ]
  %.058 = phi i64 [ %30, %27 ], [ 0, %18 ], [ %.057, %25 ]
  br i1 %11, label %32, label %43

32:                                               ; preds = %31
  %33 = zext i8 %21 to i64
  %34 = shl i64 %.058, 31
  %35 = shl nuw nsw i64 %33, 25
  %36 = and i64 %.059, %.057
  %37 = icmp sgt i16 %23, 25
  %38 = add nsw i32 %.sext, -25
  %39 = zext nneg i32 %38 to i64
  %40 = select i1 %37, i64 %39, i64 0
  %.056 = lshr i64 %36, %40
  %41 = or i64 %34, %35
  %42 = or i64 %41, %.056
  br label %45

43:                                               ; preds = %31
  %44 = lshr i64 %.058, 1
  br label %45

45:                                               ; preds = %43, %32
  %.pn = phi i64 [ %42, %32 ], [ %44, %43 ]
  %.1 = or i64 %.pn, %.0
  %46 = load i64, ptr %4, align 8
  %47 = add i64 %46, 1
  store i64 %47, ptr %4, align 8
  %48 = getelementptr inbounds nuw i8, ptr %4, i64 8
  %49 = load i8, ptr %48, align 8, !range !24, !noundef !25
  %50 = trunc nuw i8 %49 to i1
  br i1 %50, label %51, label %57

51:                                               ; preds = %45
  %52 = lshr i64 %.1, 32
  %53 = xor i64 %52, %.pn
  %54 = trunc i64 %53 to i32
  %55 = getelementptr inbounds nuw i8, ptr %4, i64 16
  %56 = tail call i32 @hash_bytes_uint32(i32 noundef %54) #14
  tail call void @addHyperLogLog(ptr noundef nonnull %55, i32 noundef %56) #14
  br label %57

57:                                               ; preds = %51, %45
  ret i64 %.1
}